; Function Attrs: nounwind uwtable
define internal noundef ptr @list_set_item(ptr readnone captures(none) %0, ptr noundef %1) #0 {
  %3 = alloca ptr, align 8
  %4 = alloca ptr, align 8
  %5 = alloca i64, align 8
  call void @llvm.lifetime.start.p0(i64 8, ptr nonnull %3) #5
  call void @llvm.lifetime.start.p0(i64 8, ptr nonnull %4) #5
  call void @llvm.lifetime.start.p0(i64 8, ptr nonnull %5) #5
  %6 = call i32 (ptr, ptr, ...) @PyArg_ParseTuple(ptr noundef %1, ptr noundef nonnull @.str.17, ptr noundef nonnull %3, ptr noundef nonnull %5, ptr noundef nonnull %4) #5
  %.not = icmp eq i32 %6, 0
  br i1 %.not, label %40, label %7

7:                                                ; preds = %2
  %8 = load ptr, ptr %3, align 8, !tbaa !21
  %9 = icmp eq ptr %8, @_Py_NoneStruct
  br i1 %9, label %10, label %11

10:                                               ; preds = %7
  store ptr null, ptr %3, align 8, !tbaa !21
  br label %11

11:                                               ; preds = %7, %10
  %12 = phi ptr [ %8, %7 ], [ null, %10 ]
  %13 = load ptr, ptr %4, align 8, !tbaa !21
  %14 = icmp eq ptr %13, @_Py_NoneStruct
  br i1 %14, label %.thread, label %16

.thread:                                          ; preds = %11
  store ptr null, ptr %4, align 8, !tbaa !21
  %15 = load i64, ptr %5, align 8, !tbaa !25
  br label %_Py_XNewRef.exit

16:                                               ; preds = %11
  %17 = load i64, ptr %5, align 8, !tbaa !25
  %.not.i.i = icmp eq ptr %13, null
  br i1 %.not.i.i, label %_Py_XNewRef.exit, label %18

18:                                               ; preds = %16
  %19 = load i32, ptr %13, align 8, !tbaa !26
  %20 = icmp slt i32 %19, 0
  br i1 %20, label %_Py_XNewRef.exit, label %21

21:                                               ; preds = %18
  %22 = add nuw i32 %19, 1
  store i32 %22, ptr %13, align 8, !tbaa !26
  br label %_Py_XNewRef.exit

_Py_XNewRef.exit:                                 ; preds = %.thread, %16, %18, %21
  %23 = phi i64 [ %15, %.thread ], [ %17, %16 ], [ %17, %18 ], [ %17, %21 ]
  %24 = phi ptr [ null, %.thread ], [ null, %16 ], [ %13, %18 ], [ %13, %21 ]
  %25 = getelementptr i8, ptr %12, i64 8
  %.val.i = load ptr, ptr %25, align 8, !tbaa !3
  %26 = getelementptr i8, ptr %.val.i, i64 168
  %.val7.i = load i64, ptr %26, align 8, !tbaa !9
  %27 = and i64 %.val7.i, 33554432
  %.not.i = icmp eq i64 %27, 0
  br i1 %.not.i, label %28, label %29

28:                                               ; preds = %_Py_XNewRef.exit
  call void @__assert_fail(ptr noundef nonnull @.str.10, ptr noundef nonnull @.str.11, i32 noundef 44, ptr noundef nonnull @__PRETTY_FUNCTION__.PyList_SET_ITEM) #6
  unreachable

29:                                               ; preds = %_Py_XNewRef.exit
  %30 = icmp sgt i64 %23, -1
  br i1 %30, label %32, label %31

31:                                               ; preds = %29
  call void @__assert_fail(ptr noundef nonnull @.str.18, ptr noundef nonnull @.str.11, i32 noundef 45, ptr noundef nonnull @__PRETTY_FUNCTION__.PyList_SET_ITEM) #6
  unreachable

32:                                               ; preds = %29
  %33 = getelementptr inbounds nuw i8, ptr %12, i64 32
  %34 = load i64, ptr %33, align 8, !tbaa !27
  %35 = icmp slt i64 %23, %34
  br i1 %35, label %PyList_SET_ITEM.exit, label %36

36:                                               ; preds = %32
  call void @__assert_fail(ptr noundef nonnull @.str.19, ptr noundef nonnull @.str.11, i32 noundef 46, ptr noundef nonnull @__PRETTY_FUNCTION__.PyList_SET_ITEM) #6
  unreachable

PyList_SET_ITEM.exit:                             ; preds = %32
  %37 = getelementptr inbounds nuw i8, ptr %12, i64 24
  %38 = load ptr, ptr %37, align 8, !tbaa !22
  %39 = getelementptr ptr, ptr %38, i64 %23
  store ptr %24, ptr %39, align 8, !tbaa !21
  br label %40

40:                                               ; preds = %2, %PyList_SET_ITEM.exit
  %.0 = phi ptr [ @_Py_NoneStruct, %PyList_SET_ITEM.exit ], [ null, %2 ]
  call void @llvm.lifetime.end.p0(i64 8, ptr nonnull %5) #5
  call void @llvm.lifetime.end.p0(i64 8, ptr nonnull %4) #5
  call void @llvm.lifetime.end.p0(i64 8, ptr nonnull %3) #5
  ret ptr %.0
}